; Function Attrs: cold nounwind optsize uwtable
define hidden range(i32 -2147483648, 1) i32 @ff_aac_sbr_ctx_alloc_init_fixed(ptr noundef readnone captures(none) %0, ptr noundef writeonly captures(none) %1, i32 noundef %2) local_unnamed_addr #0 {
  %4 = alloca float, align 4
  %5 = tail call noalias ptr @av_mallocz(i64 noundef 642320) #13
  call void @llvm.lifetime.start.p0(i64 4, ptr nonnull %4) #13
  %.not = icmp eq ptr %5, null
  br i1 %.not, label %40, label %6

6:                                                ; preds = %3
  store ptr %5, ptr %1, align 8, !tbaa !4
  %7 = getelementptr inbounds nuw i8, ptr %5, i64 117456
  %8 = getelementptr inbounds nuw i8, ptr %5, i64 40480
  store ptr %7, ptr %8, align 16, !tbaa !9
  %9 = getelementptr inbounds nuw i8, ptr %5, i64 160464
  %10 = getelementptr inbounds nuw i8, ptr %5, i64 80832
  store ptr %9, ptr %10, align 16, !tbaa !9
  %11 = getelementptr inbounds nuw i8, ptr %5, i64 203556
  %12 = getelementptr inbounds nuw i8, ptr %5, i64 203560
  %13 = load i32, ptr %12, align 4, !tbaa !10
  store i32 %13, ptr %11, align 4, !tbaa !10
  %14 = getelementptr inbounds nuw i8, ptr %5, i64 203484
  store i32 %2, ptr %14, align 4, !tbaa !12
  %15 = getelementptr inbounds nuw i8, ptr %5, i64 203476
  store i32 0, ptr %15, align 4, !tbaa !21
  %16 = getelementptr inbounds nuw i8, ptr %5, i64 203488
  store i32 0, ptr %16, align 16, !tbaa !22
  %17 = getelementptr inbounds nuw i8, ptr %5, i64 203480
  store i32 0, ptr %17, align 8, !tbaa !23
  store i32 32, ptr %12, align 4, !tbaa !10
  %18 = getelementptr inbounds nuw i8, ptr %5, i64 203568
  store i32 0, ptr %18, align 4, !tbaa !10
  %19 = getelementptr inbounds nuw i8, ptr %5, i64 324840
  store i32 -1, ptr %19, align 4, !tbaa !10
  %20 = getelementptr inbounds nuw i8, ptr %5, i64 218168
  store i32 -1, ptr %20, align 4, !tbaa !10
  %21 = getelementptr inbounds nuw i8, ptr %5, i64 203500
  tail call void @llvm.memset.p0.i64(ptr noundef nonnull align 4 dereferenceable(6) %21, i8 -1, i64 6, i1 false)
  %22 = getelementptr inbounds nuw i8, ptr %5, i64 218160
  store i32 1152, ptr %22, align 16, !tbaa !24
  %23 = getelementptr inbounds nuw i8, ptr %5, i64 324832
  store i32 1152, ptr %23, align 16, !tbaa !24
  store float 1.000000e+00, ptr %4, align 4, !tbaa !26
  %24 = getelementptr inbounds nuw i8, ptr %5, i64 642160
  %25 = getelementptr inbounds nuw i8, ptr %5, i64 642168
  %26 = call i32 @av_tx_init(ptr noundef nonnull %24, ptr noundef nonnull %25, i32 noundef 5, i32 noundef 1, i32 noundef 64, ptr noundef nonnull %4, i64 noundef 0) #13
  %27 = icmp slt i32 %26, 0
  br i1 %27, label %40, label %28

28:                                               ; preds = %6
  store float -1.000000e+00, ptr %4, align 4, !tbaa !26
  %29 = getelementptr inbounds nuw i8, ptr %5, i64 642144
  %30 = getelementptr inbounds nuw i8, ptr %5, i64 642152
  %31 = call i32 @av_tx_init(ptr noundef nonnull %29, ptr noundef nonnull %30, i32 noundef 5, i32 noundef 1, i32 noundef 64, ptr noundef nonnull %4, i64 noundef 0) #13
  %32 = icmp slt i32 %31, 0
  br i1 %32, label %40, label %33

33:                                               ; preds = %28
  %34 = getelementptr inbounds nuw i8, ptr %5, i64 550968
  call void @ff_psdsp_init_fixed(ptr noundef nonnull %34) #13
  %35 = getelementptr inbounds nuw i8, ptr %5, i64 642176
  call void @ff_sbrdsp_init_fixed(ptr noundef nonnull %35) #13
  %36 = getelementptr inbounds nuw i8, ptr %5, i64 642288
  store ptr @sbr_lf_gen, ptr %36, align 8, !tbaa !28
  %37 = getelementptr inbounds nuw i8, ptr %5, i64 642296
  store ptr @sbr_hf_assemble, ptr %37, align 8, !tbaa !29
  %38 = getelementptr inbounds nuw i8, ptr %5, i64 642304
  store ptr @sbr_x_gen, ptr %38, align 8, !tbaa !30
  %39 = getelementptr inbounds nuw i8, ptr %5, i64 642312
  store ptr @sbr_hf_inverse_filter, ptr %39, align 8, !tbaa !31
  br label %40

40:                                               ; preds = %28, %6, %3, %33
  %.0 = phi i32 [ 0, %33 ], [ -12, %3 ], [ %26, %6 ], [ %31, %28 ]
  call void @llvm.lifetime.end.p0(i64 4, ptr nonnull %4) #13
  ret i32 %.0
}